; ModuleID = '51/932.c'
source_filename = "51/932.c"
target datalayout = "e-m:e-p270:32:32-p271:32:32-p272:64:64-i64:64-f80:128-n8:16:32:64-S128"
target triple = "x86_64-pc-linux-gnu"

@.str = private unnamed_addr constant [3 x i8] c"%d\00", align 1
@.str.1 = private unnamed_addr constant [3 x i8] c"%s\00", align 1
@.str.2 = private unnamed_addr constant [3 x i8] c"NO\00", align 1
@.str.3 = private unnamed_addr constant [4 x i8] c"%d\0A\00", align 1
@.str.4 = private unnamed_addr constant [4 x i8] c"%s\0A\00", align 1

; Function Attrs: noinline nounwind uwtable
define dso_local i32 @main() #0 {
  %1 = alloca i32, align 4
  %2 = alloca [510 x [7 x i8]], align 16
  %3 = alloca [510 x i8], align 16
  %4 = alloca i32, align 4
  %5 = alloca i32, align 4
  %6 = alloca i32, align 4
  %7 = alloca i32, align 4
  %8 = alloca i32, align 4
  %9 = alloca [510 x i32], align 16
  %10 = alloca i32, align 4
  %11 = alloca i32, align 4
  %12 = alloca i32, align 4
  store i32 0, i32* %1, align 4
  %13 = bitcast [510 x i32]* %9 to i8*
  call void @llvm.memset.p0i8.i64(i8* align 16 %13, i8 0, i64 2040, i1 false)
  store i32 0, i32* %12, align 4
  %14 = call i32 (i8*, ...) @__isoc99_scanf(i8* getelementptr inbounds ([3 x i8], [3 x i8]* @.str, i64 0, i64 0), i32* %5)
  %15 = call i32 @getchar()
  %16 = getelementptr inbounds [510 x i8], [510 x i8]* %3, i64 0, i64 0
  %17 = call i32 (i8*, ...) @__isoc99_scanf(i8* getelementptr inbounds ([3 x i8], [3 x i8]* @.str.1, i64 0, i64 0), i8* %16)
  %18 = getelementptr inbounds [510 x i8], [510 x i8]* %3, i64 0, i64 0
  %19 = call i64 @strlen(i8* %18) #4
  %20 = trunc i64 %19 to i32
  store i32 %20, i32* %4, align 4
  store i32 0, i32* %6, align 4
  br label %21

21:                                               ; preds = %59, %0
  %22 = load i32, i32* %6, align 4
  %23 = load i32, i32* %4, align 4
  %24 = load i32, i32* %5, align 4
  %25 = sub nsw i32 %23, %24
  %26 = add nsw i32 %25, 1
  %27 = icmp slt i32 %22, %26
  br i1 %27, label %28, label %62

28:                                               ; preds = %21
  %29 = load i32, i32* %6, align 4
  store i32 %29, i32* %7, align 4
  br label %30

30:                                               ; preds = %49, %28
  %31 = load i32, i32* %7, align 4
  %32 = load i32, i32* %6, align 4
  %33 = load i32, i32* %5, align 4
  %34 = add nsw i32 %32, %33
  %35 = icmp slt i32 %31, %34
  br i1 %35, label %36, label %52

36:                                               ; preds = %30
  %37 = load i32, i32* %7, align 4
  %38 = sext i32 %37 to i64
  %39 = getelementptr inbounds [510 x i8], [510 x i8]* %3, i64 0, i64 %38
  %40 = load i8, i8* %39, align 1
  %41 = load i32, i32* %6, align 4
  %42 = sext i32 %41 to i64
  %43 = getelementptr inbounds [510 x [7 x i8]], [510 x [7 x i8]]* %2, i64 0, i64 %42
  %44 = load i32, i32* %7, align 4
  %45 = load i32, i32* %6, align 4
  %46 = sub nsw i32 %44, %45
  %47 = sext i32 %46 to i64
  %48 = getelementptr inbounds [7 x i8], [7 x i8]* %43, i64 0, i64 %47
  store i8 %40, i8* %48, align 1
  br label %49

49:                                               ; preds = %36
  %50 = load i32, i32* %7, align 4
  %51 = add nsw i32 %50, 1
  store i32 %51, i32* %7, align 4
  br label %30

52:                                               ; preds = %30
  %53 = load i32, i32* %6, align 4
  %54 = sext i32 %53 to i64
  %55 = getelementptr inbounds [510 x [7 x i8]], [510 x [7 x i8]]* %2, i64 0, i64 %54
  %56 = load i32, i32* %5, align 4
  %57 = sext i32 %56 to i64
  %58 = getelementptr inbounds [7 x i8], [7 x i8]* %55, i64 0, i64 %57
  store i8 0, i8* %58, align 1
  br label %59

59:                                               ; preds = %52
  %60 = load i32, i32* %6, align 4
  %61 = add nsw i32 %60, 1
  store i32 %61, i32* %6, align 4
  br label %21

62:                                               ; preds = %21
  store i32 0, i32* %6, align 4
  br label %63

63:                                               ; preds = %101, %62
  %64 = load i32, i32* %6, align 4
  %65 = load i32, i32* %4, align 4
  %66 = load i32, i32* %5, align 4
  %67 = sub nsw i32 %65, %66
  %68 = add nsw i32 %67, 1
  %69 = icmp slt i32 %64, %68
  br i1 %69, label %70, label %104

70:                                               ; preds = %63
  %71 = load i32, i32* %6, align 4
  store i32 %71, i32* %7, align 4
  br label %72

72:                                               ; preds = %97, %70
  %73 = load i32, i32* %7, align 4
  %74 = load i32, i32* %4, align 4
  %75 = load i32, i32* %5, align 4
  %76 = sub nsw i32 %74, %75
  %77 = add nsw i32 %76, 1
  %78 = icmp slt i32 %73, %77
  br i1 %78, label %79, label %100

79:                                               ; preds = %72
  %80 = load i32, i32* %6, align 4
  %81 = sext i32 %80 to i64
  %82 = getelementptr inbounds [510 x [7 x i8]], [510 x [7 x i8]]* %2, i64 0, i64 %81
  %83 = getelementptr inbounds [7 x i8], [7 x i8]* %82, i64 0, i64 0
  %84 = load i32, i32* %7, align 4
  %85 = sext i32 %84 to i64
  %86 = getelementptr inbounds [510 x [7 x i8]], [510 x [7 x i8]]* %2, i64 0, i64 %85
  %87 = getelementptr inbounds [7 x i8], [7 x i8]* %86, i64 0, i64 0
  %88 = call i32 @strcmp(i8* %83, i8* %87) #4
  %89 = icmp eq i32 %88, 0
  br i1 %89, label %90, label %96

90:                                               ; preds = %79
  %91 = load i32, i32* %6, align 4
  %92 = sext i32 %91 to i64
  %93 = getelementptr inbounds [510 x i32], [510 x i32]* %9, i64 0, i64 %92
  %94 = load i32, i32* %93, align 4
  %95 = add nsw i32 %94, 1
  store i32 %95, i32* %93, align 4
  br label %96

96:                                               ; preds = %90, %79
  br label %97

97:                                               ; preds = %96
  %98 = load i32, i32* %7, align 4
  %99 = add nsw i32 %98, 1
  store i32 %99, i32* %7, align 4
  br label %72

100:                                              ; preds = %72
  br label %101

101:                                              ; preds = %100
  %102 = load i32, i32* %6, align 4
  %103 = add nsw i32 %102, 1
  store i32 %103, i32* %6, align 4
  br label %63

104:                                              ; preds = %63
  %105 = getelementptr inbounds [510 x i32], [510 x i32]* %9, i64 0, i64 0
  %106 = load i32, i32* %105, align 16
  store i32 %106, i32* %10, align 4
  store i32 0, i32* %11, align 4
  store i32 0, i32* %6, align 4
  br label %107

107:                                              ; preds = %128, %104
  %108 = load i32, i32* %6, align 4
  %109 = load i32, i32* %4, align 4
  %110 = load i32, i32* %5, align 4
  %111 = sub nsw i32 %109, %110
  %112 = add nsw i32 %111, 1
  %113 = icmp slt i32 %108, %112
  br i1 %113, label %114, label %131

114:                                              ; preds = %107
  %115 = load i32, i32* %6, align 4
  %116 = sext i32 %115 to i64
  %117 = getelementptr inbounds [510 x i32], [510 x i32]* %9, i64 0, i64 %116
  %118 = load i32, i32* %117, align 4
  %119 = load i32, i32* %10, align 4
  %120 = icmp sgt i32 %118, %119
  br i1 %120, label %121, label %127

121:                                              ; preds = %114
  %122 = load i32, i32* %6, align 4
  %123 = sext i32 %122 to i64
  %124 = getelementptr inbounds [510 x i32], [510 x i32]* %9, i64 0, i64 %123
  %125 = load i32, i32* %124, align 4
  store i32 %125, i32* %10, align 4
  %126 = load i32, i32* %6, align 4
  store i32 %126, i32* %11, align 4
  br label %127

127:                                              ; preds = %121, %114
  br label %128

128:                                              ; preds = %127
  %129 = load i32, i32* %6, align 4
  %130 = add nsw i32 %129, 1
  store i32 %130, i32* %6, align 4
  br label %107

131:                                              ; preds = %107
  %132 = load i32, i32* %10, align 4
  %133 = icmp sle i32 %132, 1
  br i1 %133, label %134, label %136

134:                                              ; preds = %131
  %135 = call i32 (i8*, ...) @printf(i8* getelementptr inbounds ([3 x i8], [3 x i8]* @.str.2, i64 0, i64 0))
  br label %164

136:                                              ; preds = %131
  %137 = load i32, i32* %10, align 4
  %138 = call i32 (i8*, ...) @printf(i8* getelementptr inbounds ([4 x i8], [4 x i8]* @.str.3, i64 0, i64 0), i32 %137)
  store i32 0, i32* %6, align 4
  br label %139

139:                                              ; preds = %160, %136
  %140 = load i32, i32* %6, align 4
  %141 = load i32, i32* %4, align 4
  %142 = load i32, i32* %5, align 4
  %143 = sub nsw i32 %141, %142
  %144 = add nsw i32 %143, 1
  %145 = icmp slt i32 %140, %144
  br i1 %145, label %146, label %163

146:                                              ; preds = %139
  %147 = load i32, i32* %6, align 4
  %148 = sext i32 %147 to i64
  %149 = getelementptr inbounds [510 x i32], [510 x i32]* %9, i64 0, i64 %148
  %150 = load i32, i32* %149, align 4
  %151 = load i32, i32* %10, align 4
  %152 = icmp eq i32 %150, %151
  br i1 %152, label %153, label %159

153:                                              ; preds = %146
  %154 = load i32, i32* %6, align 4
  %155 = sext i32 %154 to i64
  %156 = getelementptr inbounds [510 x [7 x i8]], [510 x [7 x i8]]* %2, i64 0, i64 %155
  %157 = getelementptr inbounds [7 x i8], [7 x i8]* %156, i64 0, i64 0
  %158 = call i32 (i8*, ...) @printf(i8* getelementptr inbounds ([4 x i8], [4 x i8]* @.str.4, i64 0, i64 0), i8* %157)
  br label %159

159:                                              ; preds = %153, %146
  br label %160

160:                                              ; preds = %159
  %161 = load i32, i32* %6, align 4
  %162 = add nsw i32 %161, 1
  store i32 %162, i32* %6, align 4
  br label %139

163:                                              ; preds = %139
  br label %164

164:                                              ; preds = %163, %134
  ret i32 0
}

; Function Attrs: argmemonly nounwind willreturn
declare void @llvm.memset.p0i8.i64(i8* nocapture writeonly, i8, i64, i1 immarg) #1

declare dso_local i32 @__isoc99_scanf(i8*, ...) #2

declare dso_local i32 @getchar() #2

; Function Attrs: nounwind readonly
declare dso_local i64 @strlen(i8*) #3

; Function Attrs: nounwind readonly
declare dso_local i32 @strcmp(i8*, i8*) #3

declare dso_local i32 @printf(i8*, ...) #2


!llvm.module.flags = !{!0}
!llvm.ident = !{!1}

!0 = !{i32 1, !"wchar_size", i32 4}
!1 = !{!"clang version 10.0.0-4ubuntu1 "}
